target datalayout = "e-m:e-p270:32:32-p271:32:32-p272:64:64-i64:64-i128:128-f80:128-n8:16:32:64-S128"
target triple = "x86_64-pc-linux-gnu"

%struct.PJconsts = type { ptr, ptr, ptr, ptr, ptr, ptr, ptr, ptr, ptr, ptr, ptr, ptr, i32, ptr, ptr, ptr, ptr, ptr, ptr, ptr, ptr, double, double, double, double, double, double, double, double, double, double, double, double, double, double, double, double, double, double, double, double, double, double, i32, i32, i32, i32, i32, i32, i32, i32, i32, i32, i32, ptr, ptr, ptr, ptr, ptr, ptr, double, double, double, double, double, double, double, double, double, double, double, i32, [7 x double], i32, ptr, ptr, double, double, i32, [4 x i8], %"class.std::shared_ptr", i8, double, i8, %"class.std::__cxx11::basic_string", %"class.std::__cxx11::basic_string", %"class.std::__cxx11::basic_string", i8, %"class.std::vector", i32, %"class.std::vector.3", i32, i8, i8, i8, ptr }
%"class.std::shared_ptr" = type { %"class.std::__shared_ptr" }
%"class.std::__shared_ptr" = type { ptr, %"class.std::__shared_count" }
%"class.std::__shared_count" = type { ptr }
%"class.std::__cxx11::basic_string" = type { %"struct.std::__cxx11::basic_string<char>::_Alloc_hider", i64, %union.anon }
%"struct.std::__cxx11::basic_string<char>::_Alloc_hider" = type { ptr }
%union.anon = type { i64, [8 x i8] }
%"class.std::vector" = type { %"struct.std::_Vector_base" }
%"struct.std::_Vector_base" = type { %"struct.std::_Vector_base<osgeo::proj::operation::GridDescription, std::allocator<osgeo::proj::operation::GridDescription>>::_Vector_impl" }
%"struct.std::_Vector_base<osgeo::proj::operation::GridDescription, std::allocator<osgeo::proj::operation::GridDescription>>::_Vector_impl" = type { %"struct.std::_Vector_base<osgeo::proj::operation::GridDescription, std::allocator<osgeo::proj::operation::GridDescription>>::_Vector_impl_data" }
%"struct.std::_Vector_base<osgeo::proj::operation::GridDescription, std::allocator<osgeo::proj::operation::GridDescription>>::_Vector_impl_data" = type { ptr, ptr, ptr }
%"class.std::vector.3" = type { %"struct.std::_Vector_base.4" }
%"struct.std::_Vector_base.4" = type { %"struct.std::_Vector_base<PJCoordOperation, std::allocator<PJCoordOperation>>::_Vector_impl" }
%"struct.std::_Vector_base<PJCoordOperation, std::allocator<PJCoordOperation>>::_Vector_impl" = type { %"struct.std::_Vector_base<PJCoordOperation, std::allocator<PJCoordOperation>>::_Vector_impl_data" }
%"struct.std::_Vector_base<PJCoordOperation, std::allocator<PJCoordOperation>>::_Vector_impl_data" = type { ptr, ptr, ptr }
%"struct.(anonymous namespace)::pj_moll_data" = type { double, double, double }

; Function Attrs: mustprogress uwtable
define hidden noundef ptr @_Z33pj_projection_specific_setup_wag5P8PJconsts(ptr noundef %0) #0 {
  %2 = alloca ptr, align 8
  %3 = alloca ptr, align 8
  %4 = alloca ptr, align 8
  %5 = alloca i32, align 4
  store ptr %0, ptr %3, align 8, !tbaa !3
  call void @llvm.lifetime.start.p0(i64 8, ptr %4) #8
  %6 = call noalias ptr @calloc(i64 noundef 1, i64 noundef 24) #9
  store ptr %6, ptr %4, align 8, !tbaa !41
  %7 = load ptr, ptr %4, align 8, !tbaa !41
  %8 = icmp eq ptr null, %7
  br i1 %8, label %9, label %12

9:                                                ; preds = %1
  %10 = load ptr, ptr %3, align 8, !tbaa !3
  %11 = call noundef ptr @_Z21pj_default_destructorP8PJconstsi(ptr noundef %10, i32 noundef 4096)
  store ptr %11, ptr %2, align 8
  store i32 1, ptr %5, align 4
  br label %29

12:                                               ; preds = %1
  %13 = load ptr, ptr %4, align 8, !tbaa !41
  %14 = load ptr, ptr %3, align 8, !tbaa !3
  %15 = getelementptr inbounds nuw %struct.PJconsts, ptr %14, i32 0, i32 11
  store ptr %13, ptr %15, align 8, !tbaa !43
  %16 = load ptr, ptr %3, align 8, !tbaa !3
  %17 = getelementptr inbounds nuw %struct.PJconsts, ptr %16, i32 0, i32 27
  store double 0.000000e+00, ptr %17, align 8, !tbaa !45
  %18 = load ptr, ptr %4, align 8, !tbaa !41
  %19 = getelementptr inbounds nuw %"struct.(anonymous namespace)::pj_moll_data", ptr %18, i32 0, i32 0
  store double 0x3FED1CD5F99C38B0, ptr %19, align 8, !tbaa !47
  %20 = load ptr, ptr %4, align 8, !tbaa !41
  %21 = getelementptr inbounds nuw %"struct.(anonymous namespace)::pj_moll_data", ptr %20, i32 0, i32 1
  store double 1.650140e+00, ptr %21, align 8, !tbaa !49
  %22 = load ptr, ptr %4, align 8, !tbaa !41
  %23 = getelementptr inbounds nuw %"struct.(anonymous namespace)::pj_moll_data", ptr %22, i32 0, i32 2
  store double 3.008960e+00, ptr %23, align 8, !tbaa !50
  %24 = load ptr, ptr %3, align 8, !tbaa !3
  %25 = getelementptr inbounds nuw %struct.PJconsts, ptr %24, i32 0, i32 14
  store ptr @_ZL14moll_s_inverse5PJ_XYP8PJconsts, ptr %25, align 8, !tbaa !51
  %26 = load ptr, ptr %3, align 8, !tbaa !3
  %27 = getelementptr inbounds nuw %struct.PJconsts, ptr %26, i32 0, i32 13
  store ptr @_ZL14moll_s_forward5PJ_LPP8PJconsts, ptr %27, align 8, !tbaa !52
  %28 = load ptr, ptr %3, align 8, !tbaa !3
  store ptr %28, ptr %2, align 8
  store i32 1, ptr %5, align 4
  br label %29

29:                                               ; preds = %12, %9
  call void @llvm.lifetime.end.p0(i64 8, ptr %4) #8
  %30 = load ptr, ptr %2, align 8
  ret ptr %30
}